(i__main__
LogFile
p0
(dp1
S'_installed_files'
p2
(dp3
S'../../../../../../../../../cvmfs/minerva.opensciencegrid.org/minerva/software_releases/v22r1p1/minerva/EXTERNAL/EXTERNAL_v22r1p1/NuConDB/x86_64-slc7-gcc49-opt/libNuConDBLib.so'
p4
S'../../../InstallArea/x86_64-slc7-gcc49-opt/lib/libNuConDBLib.so'
p5
sS'../../../../../../../../../../cvmfs/minerva.opensciencegrid.org/minerva/software_releases/v22r1p1/lhcb/GAUDI/GAUDI_v22r4b_lcgcmake/Gaudi/GaudiPolicy/cmt/fragments/__init__.py'
p6
S'../../../InstallArea/x86_64-slc7-gcc49-opt/python/RockMuonCalibration/__init__.py'
p7
sS'../../../Cal/RockMuonCalibration/genConf/RockMuonCalibration'
p8
(dp9
S'../../../../Cal/RockMuonCalibration/genConf/RockMuonCalibration/RockMuonCalibrationConf.py'
p10
S'../../../InstallArea/x86_64-slc7-gcc49-opt/python/RockMuonCalibration/RockMuonCalibrationConf.py'
p11
sS'../../../../Cal/RockMuonCalibration/genConf/RockMuonCalibration/RockMuonCalibration_confDb.py'
p12
S'../../../InstallArea/x86_64-slc7-gcc49-opt/python/RockMuonCalibration/RockMuonCalibration_confDb.py'
p13
ssS'../../../Cal/RockMuonCalibration/x86_64-slc7-gcc49-opt/libRockMuonCalibration.so'
p14
S'../../../InstallArea/x86_64-slc7-gcc49-opt/lib/libRockMuonCalibration.so'
p15
ssb.